; Function Attrs: nounwind uwtable
define internal ptr @test_PyDateTime_DELTA_GET(ptr readnone captures(none) %0, ptr noundef readonly captures(none) %1) #0 {
  %3 = getelementptr inbounds nuw i8, ptr %1, i64 24
  %4 = load i32, ptr %3, align 8, !tbaa !15
  %5 = getelementptr inbounds nuw i8, ptr %1, i64 28
  %6 = load i32, ptr %5, align 4, !tbaa !18
  %7 = getelementptr inbounds nuw i8, ptr %1, i64 32
  %8 = load i32, ptr %7, align 8, !tbaa !19
  %9 = tail call ptr (ptr, ...) @Py_BuildValue(ptr noundef nonnull @.str.23, i32 noundef %4, i32 noundef %6, i32 noundef %8) #4
  ret ptr %9
}